; Function Attrs: mustprogress nofree nounwind memory(read, argmem: readwrite) uwtable
define noundef zeroext i1 @_ZN4base12StringToUintERKNS_16BasicStringPieceINSt7__cxx1112basic_stringIcSt11char_traitsIcESaIcEEEEEPj(ptr noundef nonnull readonly align 8 captures(none) dereferenceable(16) %0, ptr noundef writeonly captures(none) %1) local_unnamed_addr #3 {
  %.val = load ptr, ptr %0, align 8, !tbaa !62
  %3 = getelementptr inbounds nuw i8, ptr %0, i64 8
  %.val2 = load i64, ptr %3, align 8, !tbaa !64
  %4 = getelementptr inbounds nuw i8, ptr %.val, i64 %.val2
  %.not24.i.i = icmp samesign eq i64 %.val2, 0
  br i1 %.not24.i.i, label %.critedge18.i.i, label %.lr.ph.i.preheader.i

.lr.ph.i.preheader.i:                             ; preds = %2
  %5 = load i8, ptr %.val, align 1, !tbaa !6
  %6 = zext i8 %5 to i32
  %7 = tail call i32 @isspace(i32 noundef %6) #20
  %.not20.i7.i = icmp eq i32 %7, 0
  br i1 %.not20.i7.i, label %.critedge.i.i, label %.lr.ph.i

.lr.ph.i.i:                                       ; preds = %.lr.ph.i
  %8 = load i8, ptr %11, align 1, !tbaa !6
  %9 = zext i8 %8 to i32
  %10 = tail call i32 @isspace(i32 noundef %9) #20
  %.not20.i.i = icmp eq i32 %10, 0
  br i1 %.not20.i.i, label %.critedge.i.i, label %.lr.ph.i, !llvm.loop !76

.lr.ph.i:                                         ; preds = %.lr.ph.i.preheader.i, %.lr.ph.i.i
  %.01525.i8.i = phi ptr [ %11, %.lr.ph.i.i ], [ %.val, %.lr.ph.i.preheader.i ]
  %11 = getelementptr inbounds nuw i8, ptr %.01525.i8.i, i64 1
  %.not.i.i = icmp eq ptr %11, %4
  br i1 %.not.i.i, label %_ZN4base12_GLOBAL__N_121IteratorRangeToNumberINS0_25StringPieceToNumberTraitsIjLi10EEEE4BaseINS4_8PositiveEE6InvokeEPKcS9_Pj.exit.i.sink.split.i, label %.lr.ph.i.i, !llvm.loop !76

.critedge.i.i:                                    ; preds = %.lr.ph.i.i, %.lr.ph.i.preheader.i
  %.01525.i.lcssa.i = phi ptr [ %.val, %.lr.ph.i.preheader.i ], [ %11, %.lr.ph.i.i ]
  %.lcssa.i = phi i8 [ %5, %.lr.ph.i.preheader.i ], [ %8, %.lr.ph.i.i ]
  %12 = icmp eq i8 %.lcssa.i, 45
  br i1 %12, label %13, label %.critedge17.i.i

13:                                               ; preds = %.critedge.i.i
  store i32 0, ptr %1, align 4, !tbaa !66
  br label %_ZN4base12_GLOBAL__N_115StringToIntImplIjEEbRKNS_16BasicStringPieceINSt7__cxx1112basic_stringIcSt11char_traitsIcESaIcEEEEEPT_.exit

.critedge17.i.i:                                  ; preds = %.critedge.i.i
  %14 = icmp eq i8 %.lcssa.i, 43
  %spec.select.idx.i.i = zext i1 %14 to i64
  %spec.select.i.i = getelementptr inbounds nuw i8, ptr %.01525.i.lcssa.i, i64 %spec.select.idx.i.i
  br label %.critedge18.i.i

.critedge18.i.i:                                  ; preds = %.critedge17.i.i, %2
  %.022.i.i = phi i1 [ %.not20.i7.i, %.critedge17.i.i ], [ true, %2 ]
  %.116.i.i = phi ptr [ %spec.select.i.i, %.critedge17.i.i ], [ %.val, %2 ]
  store i32 0, ptr %1, align 4, !tbaa !66
  %15 = icmp eq ptr %.116.i.i, %4
  br i1 %15, label %_ZN4base12_GLOBAL__N_121IteratorRangeToNumberINS0_25StringPieceToNumberTraitsIjLi10EEEE4BaseINS4_8PositiveEE6InvokeEPKcS9_Pj.exit.i.i, label %.preheader.i.i.i

.preheader.i.i.i:                                 ; preds = %.critedge18.i.i, %.critedge.i.i.i
  %16 = phi i32 [ %29, %.critedge.i.i.i ], [ 0, %.critedge18.i.i ]
  %.01527.i.i.i = phi ptr [ %30, %.critedge.i.i.i ], [ %.116.i.i, %.critedge18.i.i ]
  %17 = load i8, ptr %.01527.i.i.i, align 1, !tbaa !6
  %18 = add i8 %17, -48
  %or.cond.i.i.i.i.i = icmp ult i8 %18, 10
  br i1 %or.cond.i.i.i.i.i, label %19, label %_ZN4base12_GLOBAL__N_121IteratorRangeToNumberINS0_25StringPieceToNumberTraitsIjLi10EEEE4BaseINS4_8PositiveEE6InvokeEPKcS9_Pj.exit.i.i

19:                                               ; preds = %.preheader.i.i.i
  %.not20.i.i.i = icmp eq ptr %.01527.i.i.i, %.116.i.i
  br i1 %.not20.i.i.i, label %.critedge.i.i.i, label %20

20:                                               ; preds = %19
  %21 = icmp ugt i32 %16, 429496729
  br i1 %21, label %_ZN4base12_GLOBAL__N_121IteratorRangeToNumberINS0_25StringPieceToNumberTraitsIjLi10EEEE4BaseINS4_8PositiveEE6InvokeEPKcS9_Pj.exit.i.sink.split.i, label %22

22:                                               ; preds = %20
  %23 = icmp eq i32 %16, 429496729
  %24 = icmp samesign ugt i8 %18, 5
  %or.cond.i.i.i.i = and i1 %23, %24
  br i1 %or.cond.i.i.i.i, label %_ZN4base12_GLOBAL__N_121IteratorRangeToNumberINS0_25StringPieceToNumberTraitsIjLi10EEEE4BaseINS4_8PositiveEE6InvokeEPKcS9_Pj.exit.i.sink.split.i, label %25

25:                                               ; preds = %22
  %26 = mul nuw i32 %16, 10
  br label %.critedge.i.i.i

.critedge.i.i.i:                                  ; preds = %25, %19
  %27 = phi i32 [ %26, %25 ], [ %16, %19 ]
  %28 = zext nneg i8 %18 to i32
  %29 = add i32 %27, %28
  store i32 %29, ptr %1, align 4, !tbaa !66
  %30 = getelementptr inbounds nuw i8, ptr %.01527.i.i.i, i64 1
  %.not.i.i.i = icmp eq ptr %30, %4
  br i1 %.not.i.i.i, label %_ZN4base12_GLOBAL__N_121IteratorRangeToNumberINS0_25StringPieceToNumberTraitsIjLi10EEEE4BaseINS4_8PositiveEE6InvokeEPKcS9_Pj.exit.i.i, label %.preheader.i.i.i, !llvm.loop !77

_ZN4base12_GLOBAL__N_121IteratorRangeToNumberINS0_25StringPieceToNumberTraitsIjLi10EEEE4BaseINS4_8PositiveEE6InvokeEPKcS9_Pj.exit.i.sink.split.i: ; preds = %.lr.ph.i, %22, %20
  %.sink.i = phi i32 [ -1, %20 ], [ -1, %22 ], [ 0, %.lr.ph.i ]
  %.022.i3.ph.i = phi i1 [ %.022.i.i, %20 ], [ %.022.i.i, %22 ], [ false, %.lr.ph.i ]
  store i32 %.sink.i, ptr %1, align 4, !tbaa !66
  br label %_ZN4base12_GLOBAL__N_121IteratorRangeToNumberINS0_25StringPieceToNumberTraitsIjLi10EEEE4BaseINS4_8PositiveEE6InvokeEPKcS9_Pj.exit.i.i

_ZN4base12_GLOBAL__N_121IteratorRangeToNumberINS0_25StringPieceToNumberTraitsIjLi10EEEE4BaseINS4_8PositiveEE6InvokeEPKcS9_Pj.exit.i.i: ; preds = %.critedge.i.i.i, %.preheader.i.i.i, %_ZN4base12_GLOBAL__N_121IteratorRangeToNumberINS0_25StringPieceToNumberTraitsIjLi10EEEE4BaseINS4_8PositiveEE6InvokeEPKcS9_Pj.exit.i.sink.split.i, %.critedge18.i.i
  %.022.i3.i = phi i1 [ %.022.i.i, %.critedge18.i.i ], [ %.022.i3.ph.i, %_ZN4base12_GLOBAL__N_121IteratorRangeToNumberINS0_25StringPieceToNumberTraitsIjLi10EEEE4BaseINS4_8PositiveEE6InvokeEPKcS9_Pj.exit.i.sink.split.i ], [ %.022.i.i, %.preheader.i.i.i ], [ %.022.i.i, %.critedge.i.i.i ]
  %.016.i.i.i = phi i1 [ false, %.critedge18.i.i ], [ false, %_ZN4base12_GLOBAL__N_121IteratorRangeToNumberINS0_25StringPieceToNumberTraitsIjLi10EEEE4BaseINS4_8PositiveEE6InvokeEPKcS9_Pj.exit.i.sink.split.i ], [ %or.cond.i.i.i.i.i, %.preheader.i.i.i ], [ %or.cond.i.i.i.i.i, %.critedge.i.i.i ]
  %spec.select19.i.i = and i1 %.022.i3.i, %.016.i.i.i
  br label %_ZN4base12_GLOBAL__N_115StringToIntImplIjEEbRKNS_16BasicStringPieceINSt7__cxx1112basic_stringIcSt11char_traitsIcESaIcEEEEEPT_.exit

_ZN4base12_GLOBAL__N_115StringToIntImplIjEEbRKNS_16BasicStringPieceINSt7__cxx1112basic_stringIcSt11char_traitsIcESaIcEEEEEPT_.exit: ; preds = %13, %_ZN4base12_GLOBAL__N_121IteratorRangeToNumberINS0_25StringPieceToNumberTraitsIjLi10EEEE4BaseINS4_8PositiveEE6InvokeEPKcS9_Pj.exit.i.i
  %.1.i.i = phi i1 [ false, %13 ], [ %spec.select19.i.i, %_ZN4base12_GLOBAL__N_121IteratorRangeToNumberINS0_25StringPieceToNumberTraitsIjLi10EEEE4BaseINS4_8PositiveEE6InvokeEPKcS9_Pj.exit.i.i ]
  ret i1 %.1.i.i
}